; Function Attrs: mustprogress nounwind uwtable
define hidden void @_ZN10EntryPoint5printEv(ptr nocapture noundef nonnull readonly align 8 dereferenceable(80) %0) local_unnamed_addr #0 align 2 {
  %2 = load ptr, ptr @tty, align 8
  tail call void (ptr, ptr, ...) @_ZN12outputStream5printEPKcz(ptr noundef nonnull align 8 dereferenceable(56) %2, ptr noundef nonnull @.str.5) #15
  br label %3

3:                                                ; preds = %1, %6
  %indvars.iv = phi i64 [ 0, %1 ], [ %indvars.iv.next, %6 ]
  %.not = icmp eq i64 %indvars.iv, 0
  br i1 %.not, label %6, label %4

4:                                                ; preds = %3
  %5 = load ptr, ptr @tty, align 8
  tail call void (ptr, ptr, ...) @_ZN12outputStream5printEPKcz(ptr noundef nonnull align 8 dereferenceable(56) %5, ptr noundef nonnull @.str.6) #15
  br label %6

6:                                                ; preds = %4, %3
  %7 = load ptr, ptr @tty, align 8
  %8 = getelementptr inbounds [10 x ptr], ptr %0, i64 0, i64 %indvars.iv
  %9 = load ptr, ptr %8, align 8
  %10 = ptrtoint ptr %9 to i64
  tail call void (ptr, ptr, ...) @_ZN12outputStream5printEPKcz(ptr noundef nonnull align 8 dereferenceable(56) %7, ptr noundef nonnull @.str.7, i64 noundef %10) #15
  %indvars.iv.next = add nuw nsw i64 %indvars.iv, 1
  %exitcond.not = icmp eq i64 %indvars.iv.next, 10
  br i1 %exitcond.not, label %11, label %3, !llvm.loop !6

11:                                               ; preds = %6
  %12 = load ptr, ptr @tty, align 8
  tail call void (ptr, ptr, ...) @_ZN12outputStream5printEPKcz(ptr noundef nonnull align 8 dereferenceable(56) %12, ptr noundef nonnull @.str.8) #15
  ret void
}